target datalayout = "e-m:e-p270:32:32-p271:32:32-p272:64:64-i64:64-i128:128-f80:128-n8:16:32:64-S128"
target triple = "x86_64-pc-linux-gnu"

%struct.PortalData = type { ptr, ptr, ptr, ptr, ptr, i32, i32, i32, ptr, i32, %struct.QueryCompletion, ptr, ptr, ptr, ptr, i32, i32, i32, i8, i8, ptr, ptr, ptr, ptr, ptr, ptr, ptr, i8, i8, i64, i64, i8 }
%struct.QueryCompletion = type { i32, i64 }
%struct.__jmp_buf_tag = type { [8 x i64], i32, %struct.__sigset_t }
%struct.__sigset_t = type { [16 x i64] }

@ActivePortal = dso_local global ptr null, align 8
@.str.1 = private unnamed_addr constant [9 x i8] c"pquery.c\00", align 1
@CurrentResourceOwner = external global ptr, align 8
@PortalContext = external global ptr, align 8
@PG_exception_stack = external global ptr, align 8
@error_context_stack = external global ptr, align 8
@log_executor_stats = external global i8, align 1
@.str.3 = private unnamed_addr constant [10 x i8] c"PortalRun\00", align 1
@TopTransactionResourceOwner = external global ptr, align 8
@TopTransactionContext = external global ptr, align 8
@CurrentMemoryContext = external global ptr, align 8
@.str.4 = private unnamed_addr constant [33 x i8] c"unrecognized portal strategy: %d\00", align 1
@.str.5 = private unnamed_addr constant [20 x i8] c"EXECUTOR STATISTICS\00", align 1

; Function Attrs: inlinehint nounwind uwtable
define internal void @CopyQueryCompletion(ptr noundef %0, ptr noundef %1) #3 {
  %3 = alloca ptr, align 8
  %4 = alloca ptr, align 8
  store ptr %0, ptr %3, align 8
  store ptr %1, ptr %4, align 8
  %5 = load ptr, ptr %4, align 8
  %6 = getelementptr inbounds nuw %struct.QueryCompletion, ptr %5, i32 0, i32 0
  %7 = load i32, ptr %6, align 8
  %8 = load ptr, ptr %3, align 8
  %9 = getelementptr inbounds nuw %struct.QueryCompletion, ptr %8, i32 0, i32 0
  store i32 %7, ptr %9, align 8
  %10 = load ptr, ptr %4, align 8
  %11 = getelementptr inbounds nuw %struct.QueryCompletion, ptr %10, i32 0, i32 1
  %12 = load i64, ptr %11, align 8
  %13 = load ptr, ptr %3, align 8
  %14 = getelementptr inbounds nuw %struct.QueryCompletion, ptr %13, i32 0, i32 1
  store i64 %12, ptr %14, align 8
  ret void
}

; Function Attrs: inlinehint nounwind uwtable
define internal ptr @MemoryContextSwitchTo(ptr noundef %0) #3 {
  %2 = alloca ptr, align 8
  %3 = alloca ptr, align 8
  store ptr %0, ptr %2, align 8
  call void @llvm.lifetime.start.p0(i64 8, ptr %3) #10
  %4 = load ptr, ptr @CurrentMemoryContext, align 8
  store ptr %4, ptr %3, align 8
  %5 = load ptr, ptr %2, align 8
  store ptr %5, ptr @CurrentMemoryContext, align 8
  %6 = load ptr, ptr %3, align 8
  call void @llvm.lifetime.end.p0(i64 8, ptr %3) #10
  ret ptr %6
}

; Function Attrs: nounwind uwtable
define dso_local zeroext i1 @PortalRun(ptr noundef %0, i64 noundef %1, i1 noundef zeroext %2, ptr noundef %3, ptr noundef %4, ptr noundef %5) #0 {
  %7 = alloca ptr, align 8
  %8 = alloca i64, align 8
  %9 = alloca i8, align 1
  %10 = alloca ptr, align 8
  %11 = alloca ptr, align 8
  %12 = alloca ptr, align 8
  %13 = alloca i8, align 1
  %14 = alloca i64, align 8
  %15 = alloca ptr, align 8
  %16 = alloca ptr, align 8
  %17 = alloca ptr, align 8
  %18 = alloca ptr, align 8
  %19 = alloca ptr, align 8
  %20 = alloca ptr, align 8
  %21 = alloca ptr, align 8
  %22 = alloca ptr, align 8
  %23 = alloca [1 x %struct.__jmp_buf_tag], align 16
  %24 = alloca i8, align 1
  store ptr %0, ptr %7, align 8
  store i64 %1, ptr %8, align 8
  %25 = zext i1 %2 to i8
  store i8 %25, ptr %9, align 1
  store ptr %3, ptr %10, align 8
  store ptr %4, ptr %11, align 8
  store ptr %5, ptr %12, align 8
  call void @llvm.lifetime.start.p0(i64 1, ptr %13) #10
  call void @llvm.lifetime.start.p0(i64 8, ptr %14) #10
  call void @llvm.lifetime.start.p0(i64 8, ptr %15) #10
  call void @llvm.lifetime.start.p0(i64 8, ptr %16) #10
  call void @llvm.lifetime.start.p0(i64 8, ptr %17) #10
  call void @llvm.lifetime.start.p0(i64 8, ptr %18) #10
  call void @llvm.lifetime.start.p0(i64 8, ptr %19) #10
  call void @llvm.lifetime.start.p0(i64 8, ptr %20) #10
  br label %26

26:                                               ; preds = %6
  br label %27

27:                                               ; preds = %26
  br label %28

28:                                               ; preds = %27
  %29 = load ptr, ptr %12, align 8
  %30 = icmp ne ptr %29, null
  br i1 %30, label %31, label %33

31:                                               ; preds = %28
  %32 = load ptr, ptr %12, align 8
  call void @InitializeQueryCompletion(ptr noundef %32)
  br label %33

33:                                               ; preds = %31, %28
  %34 = load i8, ptr @log_executor_stats, align 1, !range !4, !noundef !5
  %35 = trunc i8 %34 to i1
  br i1 %35, label %36, label %52

36:                                               ; preds = %33
  %37 = load ptr, ptr %7, align 8
  %38 = getelementptr inbounds nuw %struct.PortalData, ptr %37, i32 0, i32 15
  %39 = load i32, ptr %38, align 8
  %40 = icmp ne i32 %39, 4
  br i1 %40, label %41, label %52

41:                                               ; preds = %36
  br label %42

42:                                               ; preds = %41
  br i1 false, label %43, label %45

43:                                               ; preds = %42
  %44 = call zeroext i1 @errstart_cold(i32 noundef 12, ptr noundef null) #11
  br i1 %44, label %47, label %49

45:                                               ; preds = %42
  %46 = call zeroext i1 @errstart(i32 noundef 12, ptr noundef null)
  br i1 %46, label %47, label %49

47:                                               ; preds = %45, %43
  %48 = call i32 (ptr, ...) @errmsg_internal(ptr noundef @.str.3)
  call void @errfinish(ptr noundef @.str.1, i32 noundef 707, ptr noundef @.str.3)
  br label %49

49:                                               ; preds = %47, %45, %43
  br label %50

50:                                               ; preds = %49
  br label %51

51:                                               ; preds = %50
  call void @ResetUsage()
  br label %52

52:                                               ; preds = %51, %36, %33
  %53 = load ptr, ptr %7, align 8
  call void @MarkPortalActive(ptr noundef %53)
  %54 = load ptr, ptr @TopTransactionResourceOwner, align 8
  store ptr %54, ptr %15, align 8
  %55 = load ptr, ptr @TopTransactionContext, align 8
  store ptr %55, ptr %16, align 8
  %56 = load ptr, ptr @ActivePortal, align 8
  store ptr %56, ptr %17, align 8
  %57 = load ptr, ptr @CurrentResourceOwner, align 8
  store ptr %57, ptr %18, align 8
  %58 = load ptr, ptr @PortalContext, align 8
  store ptr %58, ptr %19, align 8
  %59 = load ptr, ptr @CurrentMemoryContext, align 8
  store ptr %59, ptr %20, align 8
  br label %60

60:                                               ; preds = %52
  call void @llvm.lifetime.start.p0(i64 8, ptr %21) #10
  %61 = load ptr, ptr @PG_exception_stack, align 8
  store ptr %61, ptr %21, align 8
  call void @llvm.lifetime.start.p0(i64 8, ptr %22) #10
  %62 = load ptr, ptr @error_context_stack, align 8
  store ptr %62, ptr %22, align 8
  call void @llvm.lifetime.start.p0(i64 200, ptr %23) #10
  call void @llvm.lifetime.start.p0(i64 1, ptr %24) #10
  store i8 0, ptr %24, align 1
  %63 = getelementptr inbounds [1 x %struct.__jmp_buf_tag], ptr %23, i64 0, i64 0
  %64 = call i32 @__sigsetjmp(ptr noundef %63, i32 noundef 0) #12
  %65 = icmp eq i32 %64, 0
  br i1 %65, label %66, label %150

66:                                               ; preds = %60
  store ptr %23, ptr @PG_exception_stack, align 8
  %67 = load ptr, ptr %7, align 8
  store ptr %67, ptr @ActivePortal, align 8
  %68 = load ptr, ptr %7, align 8
  %69 = getelementptr inbounds nuw %struct.PortalData, ptr %68, i32 0, i32 3
  %70 = load ptr, ptr %69, align 8
  %71 = icmp ne ptr %70, null
  br i1 %71, label %72, label %76

72:                                               ; preds = %66
  %73 = load ptr, ptr %7, align 8
  %74 = getelementptr inbounds nuw %struct.PortalData, ptr %73, i32 0, i32 3
  %75 = load ptr, ptr %74, align 8
  store ptr %75, ptr @CurrentResourceOwner, align 8
  br label %76

76:                                               ; preds = %72, %66
  %77 = load ptr, ptr %7, align 8
  %78 = getelementptr inbounds nuw %struct.PortalData, ptr %77, i32 0, i32 2
  %79 = load ptr, ptr %78, align 8
  store ptr %79, ptr @PortalContext, align 8
  %80 = load ptr, ptr @PortalContext, align 8
  %81 = call ptr @MemoryContextSwitchTo(ptr noundef %80)
  %82 = load ptr, ptr %7, align 8
  %83 = getelementptr inbounds nuw %struct.PortalData, ptr %82, i32 0, i32 15
  %84 = load i32, ptr %83, align 8
  switch i32 %84, label %135 [
    i32 0, label %85
    i32 1, label %85
    i32 2, label %85
    i32 3, label %85
    i32 4, label %127
  ]

85:                                               ; preds = %76, %76, %76, %76
  %86 = load ptr, ptr %7, align 8
  %87 = getelementptr inbounds nuw %struct.PortalData, ptr %86, i32 0, i32 15
  %88 = load i32, ptr %87, align 8
  %89 = icmp ne i32 %88, 0
  br i1 %89, label %90, label %99

90:                                               ; preds = %85
  %91 = load ptr, ptr %7, align 8
  %92 = getelementptr inbounds nuw %struct.PortalData, ptr %91, i32 0, i32 24
  %93 = load ptr, ptr %92, align 8
  %94 = icmp ne ptr %93, null
  br i1 %94, label %99, label %95

95:                                               ; preds = %90
  %96 = load ptr, ptr %7, align 8
  %97 = load i8, ptr %9, align 1, !range !4, !noundef !5
  %98 = trunc i8 %97 to i1
  call void @FillPortalStore(ptr noundef %96, i1 noundef zeroext %98)
  br label %99

99:                                               ; preds = %95, %90, %85
  %100 = load ptr, ptr %7, align 8
  %101 = load i64, ptr %8, align 8
  %102 = load ptr, ptr %10, align 8
  %103 = call i64 @PortalRunSelect(ptr noundef %100, i1 noundef zeroext true, i64 noundef %101, ptr noundef %102)
  store i64 %103, ptr %14, align 8
  %104 = load ptr, ptr %12, align 8
  %105 = icmp ne ptr %104, null
  br i1 %105, label %106, label %119

106:                                              ; preds = %99
  %107 = load ptr, ptr %7, align 8
  %108 = getelementptr inbounds nuw %struct.PortalData, ptr %107, i32 0, i32 10
  %109 = getelementptr inbounds nuw %struct.QueryCompletion, ptr %108, i32 0, i32 0
  %110 = load i32, ptr %109, align 8
  %111 = icmp ne i32 %110, 0
  br i1 %111, label %112, label %119

112:                                              ; preds = %106
  %113 = load ptr, ptr %12, align 8
  %114 = load ptr, ptr %7, align 8
  %115 = getelementptr inbounds nuw %struct.PortalData, ptr %114, i32 0, i32 10
  call void @CopyQueryCompletion(ptr noundef %113, ptr noundef %115)
  %116 = load i64, ptr %14, align 8
  %117 = load ptr, ptr %12, align 8
  %118 = getelementptr inbounds nuw %struct.QueryCompletion, ptr %117, i32 0, i32 1
  store i64 %116, ptr %118, align 8
  br label %119

119:                                              ; preds = %112, %106, %99
  %120 = load ptr, ptr %7, align 8
  %121 = getelementptr inbounds nuw %struct.PortalData, ptr %120, i32 0, i32 17
  store i32 2, ptr %121, align 8
  %122 = load ptr, ptr %7, align 8
  %123 = getelementptr inbounds nuw %struct.PortalData, ptr %122, i32 0, i32 28
  %124 = load i8, ptr %123, align 1, !range !4, !noundef !5
  %125 = trunc i8 %124 to i1
  %126 = zext i1 %125 to i8
  store i8 %126, ptr %13, align 1
  br label %149

127:                                              ; preds = %76
  %128 = load ptr, ptr %7, align 8
  %129 = load i8, ptr %9, align 1, !range !4, !noundef !5
  %130 = trunc i8 %129 to i1
  %131 = load ptr, ptr %10, align 8
  %132 = load ptr, ptr %11, align 8
  %133 = load ptr, ptr %12, align 8
  call void @PortalRunMulti(ptr noundef %128, i1 noundef zeroext %130, i1 noundef zeroext false, ptr noundef %131, ptr noundef %132, ptr noundef %133)
  %134 = load ptr, ptr %7, align 8
  call void @MarkPortalDone(ptr noundef %134)
  store i8 1, ptr %13, align 1
  br label %149

135:                                              ; preds = %76
  br label %136

136:                                              ; preds = %135
  br i1 true, label %137, label %139

137:                                              ; preds = %136
  %138 = call zeroext i1 @errstart_cold(i32 noundef 21, ptr noundef null) #11
  br i1 %138, label %141, label %146

139:                                              ; preds = %136
  %140 = call zeroext i1 @errstart(i32 noundef 21, ptr noundef null)
  br i1 %140, label %141, label %146

141:                                              ; preds = %139, %137
  %142 = load ptr, ptr %7, align 8
  %143 = getelementptr inbounds nuw %struct.PortalData, ptr %142, i32 0, i32 15
  %144 = load i32, ptr %143, align 8
  %145 = call i32 (ptr, ...) @errmsg_internal(ptr noundef @.str.4, i32 noundef %144)
  call void @errfinish(ptr noundef @.str.1, i32 noundef 799, ptr noundef @.str.3)
  br label %146

146:                                              ; preds = %141, %139, %137
  unreachable

147:                                              ; No predecessors!
  br label %148

148:                                              ; preds = %147
  store i8 0, ptr %13, align 1
  br label %149

149:                                              ; preds = %148, %127, %119
  br label %174

150:                                              ; preds = %60
  %151 = load ptr, ptr %21, align 8
  store ptr %151, ptr @PG_exception_stack, align 8
  %152 = load ptr, ptr %22, align 8
  store ptr %152, ptr @error_context_stack, align 8
  %153 = load ptr, ptr %7, align 8
  call void @MarkPortalFailed(ptr noundef %153)
  %154 = load ptr, ptr %20, align 8
  %155 = load ptr, ptr %16, align 8
  %156 = icmp eq ptr %154, %155
  br i1 %156, label %157, label %160

157:                                              ; preds = %150
  %158 = load ptr, ptr @TopTransactionContext, align 8
  %159 = call ptr @MemoryContextSwitchTo(ptr noundef %158)
  br label %163

160:                                              ; preds = %150
  %161 = load ptr, ptr %20, align 8
  %162 = call ptr @MemoryContextSwitchTo(ptr noundef %161)
  br label %163

163:                                              ; preds = %160, %157
  %164 = load ptr, ptr %17, align 8
  store ptr %164, ptr @ActivePortal, align 8
  %165 = load ptr, ptr %18, align 8
  %166 = load ptr, ptr %15, align 8
  %167 = icmp eq ptr %165, %166
  br i1 %167, label %168, label %170

168:                                              ; preds = %163
  %169 = load ptr, ptr @TopTransactionResourceOwner, align 8
  store ptr %169, ptr @CurrentResourceOwner, align 8
  br label %172

170:                                              ; preds = %163
  %171 = load ptr, ptr %18, align 8
  store ptr %171, ptr @CurrentResourceOwner, align 8
  br label %172

172:                                              ; preds = %170, %168
  %173 = load ptr, ptr %19, align 8
  store ptr %173, ptr @PortalContext, align 8
  call void @pg_re_throw() #13
  unreachable

174:                                              ; preds = %149
  %175 = load i8, ptr %24, align 1, !range !4, !noundef !5
  %176 = trunc i8 %175 to i1
  br i1 %176, label %177, label %178

177:                                              ; preds = %174
  call void @pg_re_throw() #13
  unreachable

178:                                              ; preds = %174
  %179 = load ptr, ptr %21, align 8
  store ptr %179, ptr @PG_exception_stack, align 8
  %180 = load ptr, ptr %22, align 8
  store ptr %180, ptr @error_context_stack, align 8
  call void @llvm.lifetime.end.p0(i64 1, ptr %24) #10
  call void @llvm.lifetime.end.p0(i64 200, ptr %23) #10
  call void @llvm.lifetime.end.p0(i64 8, ptr %22) #10
  call void @llvm.lifetime.end.p0(i64 8, ptr %21) #10
  br label %181

181:                                              ; preds = %178
  br label %182

182:                                              ; preds = %181
  %183 = load ptr, ptr %20, align 8
  %184 = load ptr, ptr %16, align 8
  %185 = icmp eq ptr %183, %184
  br i1 %185, label %186, label %189

186:                                              ; preds = %182
  %187 = load ptr, ptr @TopTransactionContext, align 8
  %188 = call ptr @MemoryContextSwitchTo(ptr noundef %187)
  br label %192

189:                                              ; preds = %182
  %190 = load ptr, ptr %20, align 8
  %191 = call ptr @MemoryContextSwitchTo(ptr noundef %190)
  br label %192

192:                                              ; preds = %189, %186
  %193 = load ptr, ptr %17, align 8
  store ptr %193, ptr @ActivePortal, align 8
  %194 = load ptr, ptr %18, align 8
  %195 = load ptr, ptr %15, align 8
  %196 = icmp eq ptr %194, %195
  br i1 %196, label %197, label %199

197:                                              ; preds = %192
  %198 = load ptr, ptr @TopTransactionResourceOwner, align 8
  store ptr %198, ptr @CurrentResourceOwner, align 8
  br label %201

199:                                              ; preds = %192
  %200 = load ptr, ptr %18, align 8
  store ptr %200, ptr @CurrentResourceOwner, align 8
  br label %201

201:                                              ; preds = %199, %197
  %202 = load ptr, ptr %19, align 8
  store ptr %202, ptr @PortalContext, align 8
  %203 = load i8, ptr @log_executor_stats, align 1, !range !4, !noundef !5
  %204 = trunc i8 %203 to i1
  br i1 %204, label %205, label %211

205:                                              ; preds = %201
  %206 = load ptr, ptr %7, align 8
  %207 = getelementptr inbounds nuw %struct.PortalData, ptr %206, i32 0, i32 15
  %208 = load i32, ptr %207, align 8
  %209 = icmp ne i32 %208, 4
  br i1 %209, label %210, label %211

210:                                              ; preds = %205
  call void @ShowUsage(ptr noundef @.str.5)
  br label %211

211:                                              ; preds = %210, %205, %201
  br label %212

212:                                              ; preds = %211
  br label %213

213:                                              ; preds = %212
  br label %214

214:                                              ; preds = %213
  %215 = load i8, ptr %13, align 1, !range !4, !noundef !5
  %216 = trunc i8 %215 to i1
  call void @llvm.lifetime.end.p0(i64 8, ptr %20) #10
  call void @llvm.lifetime.end.p0(i64 8, ptr %19) #10
  call void @llvm.lifetime.end.p0(i64 8, ptr %18) #10
  call void @llvm.lifetime.end.p0(i64 8, ptr %17) #10
  call void @llvm.lifetime.end.p0(i64 8, ptr %16) #10
  call void @llvm.lifetime.end.p0(i64 8, ptr %15) #10
  call void @llvm.lifetime.end.p0(i64 8, ptr %14) #10
  call void @llvm.lifetime.end.p0(i64 1, ptr %13) #10
  ret i1 %216
}