; Function Attrs: nounwind uwtable
define dso_local zeroext i1 @PortalRun(ptr noundef %0, i64 noundef %1, i1 noundef zeroext %2, ptr noundef %3, ptr noundef %4, ptr noundef %5) local_unnamed_addr #0 {
  %7 = alloca [1 x %struct.__jmp_buf_tag], align 16
  %.not = icmp eq ptr %5, null
  br i1 %.not, label %9, label %8

8:                                                ; preds = %6
  call void @InitializeQueryCompletion(ptr noundef nonnull %5) #11
  br label %9

9:                                                ; preds = %8, %6
  %10 = load i8, ptr @log_executor_stats, align 1, !range !4, !noundef !5
  %11 = trunc nuw i8 %10 to i1
  br i1 %11, label %12, label %20

12:                                               ; preds = %9
  %13 = getelementptr inbounds nuw i8, ptr %0, i64 120
  %14 = load i32, ptr %13, align 8
  %.not60 = icmp eq i32 %14, 4
  br i1 %.not60, label %20, label %15

15:                                               ; preds = %12
  %16 = call zeroext i1 @errstart(i32 noundef 12, ptr noundef null) #11
  br i1 %16, label %17, label %19

17:                                               ; preds = %15
  %18 = call i32 (ptr, ...) @errmsg_internal(ptr noundef nonnull @.str.3) #11
  call void @errfinish(ptr noundef nonnull @.str.1, i32 noundef 707, ptr noundef nonnull @.str.3) #11
  br label %19

19:                                               ; preds = %17, %15
  call void @ResetUsage() #11
  br label %20

20:                                               ; preds = %19, %12, %9
  call void @MarkPortalActive(ptr noundef %0) #11
  %21 = load ptr, ptr @TopTransactionResourceOwner, align 8
  %22 = load ptr, ptr @TopTransactionContext, align 8
  %23 = load ptr, ptr @ActivePortal, align 8
  %24 = load ptr, ptr @CurrentResourceOwner, align 8
  %25 = load ptr, ptr @PortalContext, align 8
  %26 = load ptr, ptr @CurrentMemoryContext, align 8
  %27 = load ptr, ptr @PG_exception_stack, align 8
  %28 = load ptr, ptr @error_context_stack, align 8
  call void @llvm.lifetime.start.p0(i64 200, ptr nonnull %7) #11
  %29 = call i32 @__sigsetjmp(ptr noundef nonnull %7, i32 noundef 0) #13
  %30 = icmp eq i32 %29, 0
  br i1 %30, label %31, label %61

31:                                               ; preds = %20
  store ptr %7, ptr @PG_exception_stack, align 8
  store ptr %0, ptr @ActivePortal, align 8
  %32 = getelementptr inbounds nuw i8, ptr %0, i64 24
  %33 = load ptr, ptr %32, align 8
  %.not61 = icmp eq ptr %33, null
  br i1 %.not61, label %35, label %34

34:                                               ; preds = %31
  store ptr %33, ptr @CurrentResourceOwner, align 8
  br label %35

35:                                               ; preds = %34, %31
  %36 = getelementptr inbounds nuw i8, ptr %0, i64 16
  %37 = load ptr, ptr %36, align 8
  store ptr %37, ptr @PortalContext, align 8
  store ptr %37, ptr @CurrentMemoryContext, align 8
  %38 = getelementptr inbounds nuw i8, ptr %0, i64 120
  %39 = load i32, ptr %38, align 8
  switch i32 %39, label %57 [
    i32 4, label %56
    i32 0, label %44
    i32 1, label %40
    i32 2, label %40
    i32 3, label %40
  ]

40:                                               ; preds = %35, %35, %35
  %41 = getelementptr inbounds nuw i8, ptr %0, i64 168
  %42 = load ptr, ptr %41, align 8
  %.not63 = icmp eq ptr %42, null
  br i1 %.not63, label %43, label %44

43:                                               ; preds = %40
  call fastcc void @FillPortalStore(ptr noundef nonnull %0, i1 noundef zeroext %2)
  br label %44

44:                                               ; preds = %35, %43, %40
  %45 = call fastcc i64 @PortalRunSelect(ptr noundef nonnull %0, i1 noundef zeroext true, i64 noundef %1, ptr noundef %3)
  br i1 %.not, label %51, label %46

46:                                               ; preds = %44
  %47 = getelementptr inbounds nuw i8, ptr %0, i64 72
  %48 = load i32, ptr %47, align 8
  %.not64 = icmp eq i32 %48, 0
  br i1 %.not64, label %51, label %49

49:                                               ; preds = %46
  store i32 %48, ptr %5, align 8
  %50 = getelementptr inbounds nuw i8, ptr %5, i64 8
  store i64 %45, ptr %50, align 8
  br label %51

51:                                               ; preds = %49, %46, %44
  %52 = getelementptr inbounds nuw i8, ptr %0, i64 128
  store i32 2, ptr %52, align 8
  %53 = getelementptr inbounds nuw i8, ptr %0, i64 193
  %54 = load i8, ptr %53, align 1, !range !4, !noundef !5
  %55 = trunc nuw i8 %54 to i1
  br label %66

56:                                               ; preds = %35
  call fastcc void @PortalRunMulti(ptr noundef nonnull %0, i1 noundef zeroext %2, i1 noundef zeroext false, ptr noundef %3, ptr noundef %4, ptr noundef %5)
  call void @MarkPortalDone(ptr noundef nonnull %0) #11
  br label %66

57:                                               ; preds = %35
  %58 = call zeroext i1 @errstart_cold(i32 noundef 21, ptr noundef null) #12
  call void @llvm.assume(i1 %58)
  %59 = load i32, ptr %38, align 8
  %60 = call i32 (ptr, ...) @errmsg_internal(ptr noundef nonnull @.str.4, i32 noundef %59) #11
  call void @errfinish(ptr noundef nonnull @.str.1, i32 noundef 799, ptr noundef nonnull @.str.3) #11
  unreachable

61:                                               ; preds = %20
  store ptr %27, ptr @PG_exception_stack, align 8
  store ptr %28, ptr @error_context_stack, align 8
  call void @MarkPortalFailed(ptr noundef %0) #11
  %62 = icmp eq ptr %26, %22
  %63 = load ptr, ptr @TopTransactionContext, align 8
  %storemerge67 = select i1 %62, ptr %63, ptr %26
  store ptr %storemerge67, ptr @CurrentMemoryContext, align 8
  store ptr %23, ptr @ActivePortal, align 8
  %64 = icmp eq ptr %24, %21
  %65 = load ptr, ptr @TopTransactionResourceOwner, align 8
  %storemerge = select i1 %64, ptr %65, ptr %24
  store ptr %storemerge, ptr @CurrentResourceOwner, align 8
  store ptr %25, ptr @PortalContext, align 8
  call void @pg_re_throw() #14
  unreachable

66:                                               ; preds = %56, %51
  %.0 = phi i1 [ true, %56 ], [ %55, %51 ]
  store ptr %27, ptr @PG_exception_stack, align 8
  store ptr %28, ptr @error_context_stack, align 8
  call void @llvm.lifetime.end.p0(i64 200, ptr nonnull %7) #11
  %67 = icmp eq ptr %26, %22
  %68 = load ptr, ptr @TopTransactionContext, align 8
  %storemerge68 = select i1 %67, ptr %68, ptr %26
  store ptr %storemerge68, ptr @CurrentMemoryContext, align 8
  store ptr %23, ptr @ActivePortal, align 8
  %69 = icmp eq ptr %24, %21
  %70 = load ptr, ptr @TopTransactionResourceOwner, align 8
  %storemerge65 = select i1 %69, ptr %70, ptr %24
  store ptr %storemerge65, ptr @CurrentResourceOwner, align 8
  store ptr %25, ptr @PortalContext, align 8
  %71 = load i8, ptr @log_executor_stats, align 1, !range !4, !noundef !5
  %72 = trunc nuw i8 %71 to i1
  br i1 %72, label %73, label %76

73:                                               ; preds = %66
  %74 = load i32, ptr %38, align 8
  %.not66 = icmp eq i32 %74, 4
  br i1 %.not66, label %76, label %75

75:                                               ; preds = %73
  call void @ShowUsage(ptr noundef nonnull @.str.5) #11
  br label %76

76:                                               ; preds = %66, %73, %75
  ret i1 %.0
}